target datalayout = "e-m:e-p270:32:32-p271:32:32-p272:64:64-i64:64-i128:128-f80:128-n8:16:32:64-S128"
target triple = "x86_64-pc-linux-gnu"

%"class.clang::QualType" = type { %"class.llvm::PointerIntPair" }
%"class.llvm::PointerIntPair" = type { %"struct.llvm::detail::PunnedPointer" }
%"struct.llvm::detail::PunnedPointer" = type { [8 x i8] }
%"class.clang::CallExpr" = type { %"class.clang::Expr", i32, %"class.clang::SourceLocation" }
%"class.clang::Expr" = type { %"class.clang::ValueStmt", %"class.clang::QualType" }
%"class.clang::ValueStmt" = type { %"class.clang::Stmt" }
%"class.clang::Stmt" = type { %union.anon.632 }
%union.anon.632 = type { %"class.clang::Stmt::PseudoObjectExprBitfields" }
%"class.clang::Stmt::PseudoObjectExprBitfields" = type { i64 }
%"class.clang::SourceLocation" = type { i32 }
%"class.clang::SemaBase" = type { ptr }

; Function Attrs: mustprogress nounwind uwtable
define linkonce_odr hidden noundef nonnull align 8 dereferenceable(8) ptr @_ZN4llvm6detail13PunnedPointerINS_12PointerUnionIJPKN5clang4TypeEPKNS3_8ExtQualsEEEEEaSEl(ptr noundef nonnull align 8 dereferenceable(8) %0, i64 noundef %1) #0 comdat align 2 {
  %3 = alloca ptr, align 8
  %4 = alloca i64, align 8
  store ptr %0, ptr %3, align 8
  store i64 %1, ptr %4, align 8
  %5 = load ptr, ptr %3, align 8
  %6 = getelementptr inbounds nuw %"struct.llvm::detail::PunnedPointer", ptr %5, i32 0, i32 0
  %7 = getelementptr inbounds [8 x i8], ptr %6, i64 0, i64 0
  call void @llvm.memcpy.p0.p0.i64(ptr align 8 %7, ptr align 8 %4, i64 8, i1 false)
  ret ptr %5
}

; Function Attrs: mustprogress nounwind uwtable
define linkonce_odr hidden void @_ZN4llvm6detail13PunnedPointerINS_12PointerUnionIJPKN5clang4TypeEPKNS3_8ExtQualsEEEEEC2El(ptr noundef nonnull align 8 dereferenceable(8) %0, i64 noundef %1) unnamed_addr #0 comdat align 2 {
  %3 = alloca ptr, align 8
  %4 = alloca i64, align 8
  store ptr %0, ptr %3, align 8
  store i64 %1, ptr %4, align 8
  %5 = load ptr, ptr %3, align 8
  %6 = load i64, ptr %4, align 8
  %7 = call noundef nonnull align 8 dereferenceable(8) ptr @_ZN4llvm6detail13PunnedPointerINS_12PointerUnionIJPKN5clang4TypeEPKNS3_8ExtQualsEEEEEaSEl(ptr noundef nonnull align 8 dereferenceable(8) %5, i64 noundef %6)
  ret void
}

; Function Attrs: mustprogress nounwind uwtable
define linkonce_odr hidden void @_ZN4llvm14PointerIntPairINS_12PointerUnionIJPKN5clang4TypeEPKNS2_8ExtQualsEEEELj3EjNS_21PointerLikeTypeTraitsIS9_EENS_18PointerIntPairInfoIS9_Lj3ESB_EEEC2Ev(ptr noundef nonnull align 8 dereferenceable(8) %0) unnamed_addr #0 comdat align 2 {
  %2 = alloca ptr, align 8
  store ptr %0, ptr %2, align 8
  %3 = load ptr, ptr %2, align 8
  %4 = getelementptr inbounds nuw %"class.llvm::PointerIntPair", ptr %3, i32 0, i32 0
  call void @_ZN4llvm6detail13PunnedPointerINS_12PointerUnionIJPKN5clang4TypeEPKNS3_8ExtQualsEEEEEC2El(ptr noundef nonnull align 8 dereferenceable(8) %4, i64 noundef 0)
  ret void
}

; Function Attrs: mustprogress nounwind uwtable
define linkonce_odr hidden void @_ZN5clang8QualTypeC2Ev(ptr noundef nonnull align 8 dereferenceable(8) %0) unnamed_addr #0 comdat align 2 {
  %2 = alloca ptr, align 8
  store ptr %0, ptr %2, align 8
  %3 = load ptr, ptr %2, align 8
  %4 = getelementptr inbounds nuw %"class.clang::QualType", ptr %3, i32 0, i32 0
  call void @_ZN4llvm14PointerIntPairINS_12PointerUnionIJPKN5clang4TypeEPKNS2_8ExtQualsEEEELj3EjNS_21PointerLikeTypeTraitsIS9_EENS_18PointerIntPairInfoIS9_Lj3ESB_EEEC2Ev(ptr noundef nonnull align 8 dereferenceable(8) %4)
  ret void
}

; Function Attrs: mustprogress nounwind uwtable
define linkonce_odr hidden void @_ZN5clang4Expr7setTypeENS_8QualTypeE(ptr noundef nonnull align 8 dereferenceable(16) %0, i64 %1) #0 comdat align 2 {
  %3 = alloca %"class.clang::QualType", align 8
  %4 = alloca ptr, align 8
  %5 = getelementptr inbounds nuw %"class.clang::QualType", ptr %3, i32 0, i32 0
  %6 = getelementptr inbounds nuw %"class.llvm::PointerIntPair", ptr %5, i32 0, i32 0
  %7 = getelementptr inbounds nuw %"struct.llvm::detail::PunnedPointer", ptr %6, i32 0, i32 0
  store i64 %1, ptr %7, align 8
  store ptr %0, ptr %4, align 8
  %8 = load ptr, ptr %4, align 8
  %9 = getelementptr inbounds nuw %"class.clang::Expr", ptr %8, i32 0, i32 1
  call void @llvm.memcpy.p0.p0.i64(ptr align 8 %9, ptr align 8 %3, i64 8, i1 false)
  ret void
}

; Function Attrs: mustprogress nounwind uwtable
define linkonce_odr hidden noundef i32 @_ZNK5clang8CallExpr10getNumArgsEv(ptr noundef nonnull align 8 dereferenceable(24) %0) #0 comdat align 2 {
  %2 = alloca ptr, align 8
  store ptr %0, ptr %2, align 8
  %3 = load ptr, ptr %2, align 8
  %4 = getelementptr inbounds nuw %"class.clang::CallExpr", ptr %3, i32 0, i32 1
  %5 = load i32, ptr %4, align 8
  ret i32 %5
}

; Function Attrs: mustprogress nounwind uwtable
define dso_local noundef zeroext i1 @_ZN5clang8SemaWasm20BuiltinWasmTableSizeEPNS_8CallExprE(ptr noundef nonnull align 8 dereferenceable(8) %0, ptr noundef %1) #0 align 2 {
  %3 = alloca i1, align 1
  %4 = alloca ptr, align 8
  %5 = alloca ptr, align 8
  %6 = alloca %"class.clang::QualType", align 8
  store ptr %0, ptr %4, align 8
  store ptr %1, ptr %5, align 8
  %7 = load ptr, ptr %4, align 8
  %8 = getelementptr inbounds nuw %"class.clang::SemaBase", ptr %7, i32 0, i32 0
  %9 = load ptr, ptr %8, align 8
  %10 = load ptr, ptr %5, align 8
  %11 = call noundef zeroext i1 @_ZN5clang4Sema13checkArgCountEPNS_8CallExprEj(ptr noundef nonnull align 8 dereferenceable(17560) %9, ptr noundef %10, i32 noundef 1)
  br i1 %11, label %12, label %13

12:                                               ; preds = %2
  store i1 true, ptr %3, align 1
  br label %20

13:                                               ; preds = %2
  call void @_ZN5clang8QualTypeC2Ev(ptr noundef nonnull align 8 dereferenceable(8) %6)
  %14 = getelementptr inbounds nuw %"class.clang::SemaBase", ptr %7, i32 0, i32 0
  %15 = load ptr, ptr %14, align 8
  %16 = load ptr, ptr %5, align 8
  %17 = call noundef zeroext i1 @_ZN5clangL26CheckWasmBuiltinArgIsTableERNS_4SemaEPNS_8CallExprEjRNS_8QualTypeE(ptr noundef nonnull align 8 dereferenceable(17560) %15, ptr noundef %16, i32 noundef 0, ptr noundef nonnull align 8 dereferenceable(8) %6)
  br i1 %17, label %18, label %19

18:                                               ; preds = %13
  store i1 true, ptr %3, align 1
  br label %20

19:                                               ; preds = %13
  store i1 false, ptr %3, align 1
  br label %20

20:                                               ; preds = %19, %18, %12
  %21 = load i1, ptr %3, align 1
  ret i1 %21
}

; Function Attrs: mustprogress nounwind uwtable
define dso_local noundef zeroext i1 @_ZN5clang8SemaWasm19BuiltinWasmTableGetEPNS_8CallExprE(ptr noundef nonnull align 8 dereferenceable(8) %0, ptr noundef %1) #0 align 2 {
  %3 = alloca i1, align 1
  %4 = alloca ptr, align 8
  %5 = alloca ptr, align 8
  %6 = alloca %"class.clang::QualType", align 8
  %7 = alloca %"class.clang::QualType", align 8
  store ptr %0, ptr %4, align 8
  store ptr %1, ptr %5, align 8
  %8 = load ptr, ptr %4, align 8
  %9 = getelementptr inbounds nuw %"class.clang::SemaBase", ptr %8, i32 0, i32 0
  %10 = load ptr, ptr %9, align 8
  %11 = load ptr, ptr %5, align 8
  %12 = call noundef zeroext i1 @_ZN5clang4Sema13checkArgCountEPNS_8CallExprEj(ptr noundef nonnull align 8 dereferenceable(17560) %10, ptr noundef %11, i32 noundef 2)
  br i1 %12, label %13, label %14

13:                                               ; preds = %2
  store i1 true, ptr %3, align 1
  br label %32

14:                                               ; preds = %2
  call void @_ZN5clang8QualTypeC2Ev(ptr noundef nonnull align 8 dereferenceable(8) %6)
  %15 = getelementptr inbounds nuw %"class.clang::SemaBase", ptr %8, i32 0, i32 0
  %16 = load ptr, ptr %15, align 8
  %17 = load ptr, ptr %5, align 8
  %18 = call noundef zeroext i1 @_ZN5clangL26CheckWasmBuiltinArgIsTableERNS_4SemaEPNS_8CallExprEjRNS_8QualTypeE(ptr noundef nonnull align 8 dereferenceable(17560) %16, ptr noundef %17, i32 noundef 0, ptr noundef nonnull align 8 dereferenceable(8) %6)
  br i1 %18, label %19, label %20

19:                                               ; preds = %14
  store i1 true, ptr %3, align 1
  br label %32

20:                                               ; preds = %14
  %21 = getelementptr inbounds nuw %"class.clang::SemaBase", ptr %8, i32 0, i32 0
  %22 = load ptr, ptr %21, align 8
  %23 = load ptr, ptr %5, align 8
  %24 = call noundef zeroext i1 @_ZN5clangL28CheckWasmBuiltinArgIsIntegerERNS_4SemaEPNS_8CallExprEj(ptr noundef nonnull align 8 dereferenceable(17560) %22, ptr noundef %23, i32 noundef 1)
  br i1 %24, label %25, label %26

25:                                               ; preds = %20
  store i1 true, ptr %3, align 1
  br label %32

26:                                               ; preds = %20
  %27 = load ptr, ptr %5, align 8
  call void @llvm.memcpy.p0.p0.i64(ptr align 8 %7, ptr align 8 %6, i64 8, i1 false)
  %28 = getelementptr inbounds nuw %"class.clang::QualType", ptr %7, i32 0, i32 0
  %29 = getelementptr inbounds nuw %"class.llvm::PointerIntPair", ptr %28, i32 0, i32 0
  %30 = getelementptr inbounds nuw %"struct.llvm::detail::PunnedPointer", ptr %29, i32 0, i32 0
  %31 = load i64, ptr %30, align 8
  call void @_ZN5clang4Expr7setTypeENS_8QualTypeE(ptr noundef nonnull align 8 dereferenceable(16) %27, i64 %31)
  store i1 false, ptr %3, align 1
  br label %32

32:                                               ; preds = %26, %25, %19, %13
  %33 = load i1, ptr %3, align 1
  ret i1 %33
}

; Function Attrs: mustprogress nounwind uwtable
define dso_local noundef zeroext i1 @_ZN5clang8SemaWasm24BuiltinWasmRefNullExternEPNS_8CallExprE(ptr noundef nonnull align 8 dereferenceable(8) %0, ptr noundef %1) #0 align 2 {
  %3 = alloca i1, align 1
  %4 = alloca ptr, align 8
  %5 = alloca ptr, align 8
  %6 = alloca %"class.clang::QualType", align 8
  store ptr %0, ptr %4, align 8
  store ptr %1, ptr %5, align 8
  %7 = load ptr, ptr %4, align 8
  %8 = load ptr, ptr %5, align 8
  %9 = call noundef i32 @_ZNK5clang8CallExpr10getNumArgsEv(ptr noundef nonnull align 8 dereferenceable(24) %8)
  %10 = icmp ne i32 %9, 0
  br i1 %10, label %11, label %12

11:                                               ; preds = %2
  store i1 true, ptr %3, align 1
  br label %23

12:                                               ; preds = %2
  %13 = load ptr, ptr %5, align 8
  %14 = call noundef nonnull align 8 dereferenceable(23096) ptr @_ZNK5clang8SemaBase13getASTContextEv(ptr noundef nonnull align 8 dereferenceable(8) %7)
  %15 = call i64 @_ZNK5clang10ASTContext27getWebAssemblyExternrefTypeEv(ptr noundef nonnull align 8 dereferenceable(23096) %14)
  %16 = getelementptr inbounds nuw %"class.clang::QualType", ptr %6, i32 0, i32 0
  %17 = getelementptr inbounds nuw %"class.llvm::PointerIntPair", ptr %16, i32 0, i32 0
  %18 = getelementptr inbounds nuw %"struct.llvm::detail::PunnedPointer", ptr %17, i32 0, i32 0
  store i64 %15, ptr %18, align 8
  %19 = getelementptr inbounds nuw %"class.clang::QualType", ptr %6, i32 0, i32 0
  %20 = getelementptr inbounds nuw %"class.llvm::PointerIntPair", ptr %19, i32 0, i32 0
  %21 = getelementptr inbounds nuw %"struct.llvm::detail::PunnedPointer", ptr %20, i32 0, i32 0
  %22 = load i64, ptr %21, align 8
  call void @_ZN5clang4Expr7setTypeENS_8QualTypeE(ptr noundef nonnull align 8 dereferenceable(16) %13, i64 %22)
  store i1 false, ptr %3, align 1
  br label %23

23:                                               ; preds = %12, %11
  %24 = load i1, ptr %3, align 1
  ret i1 %24
}

; Function Attrs: mustprogress nounwind uwtable
define dso_local noundef zeroext i1 @_ZN5clang8SemaWasm35CheckWebAssemblyBuiltinFunctionCallERKNS_10TargetInfoEjPNS_8CallExprE(ptr noundef nonnull align 8 dereferenceable(8) %0, ptr noundef nonnull align 1 %1, i32 noundef %2, ptr noundef %3) #0 align 2 {
  %5 = alloca i1, align 1
  %6 = alloca ptr, align 8
  %7 = alloca ptr, align 8
  %8 = alloca i32, align 4
  %9 = alloca ptr, align 8
  store ptr %0, ptr %6, align 8
  store ptr %1, ptr %7, align 8
  store i32 %2, ptr %8, align 4
  store ptr %3, ptr %9, align 8
  %10 = load ptr, ptr %6, align 8
  %11 = load i32, ptr %8, align 4
  switch i32 %11, label %36 [
    i32 1551, label %12
    i32 1552, label %15
    i32 1554, label %18
    i32 1553, label %21
    i32 1555, label %24
    i32 1556, label %27
    i32 1557, label %30
    i32 1558, label %33
  ]

12:                                               ; preds = %4
  %13 = load ptr, ptr %9, align 8
  %14 = call noundef zeroext i1 @_ZN5clang8SemaWasm24BuiltinWasmRefNullExternEPNS_8CallExprE(ptr noundef nonnull align 8 dereferenceable(8) %10, ptr noundef %13)
  store i1 %14, ptr %5, align 1
  br label %37

15:                                               ; preds = %4
  %16 = load ptr, ptr %9, align 8
  %17 = call noundef zeroext i1 @_ZN5clang8SemaWasm22BuiltinWasmRefNullFuncEPNS_8CallExprE(ptr noundef nonnull align 8 dereferenceable(8) %10, ptr noundef %16)
  store i1 %17, ptr %5, align 1
  br label %37

18:                                               ; preds = %4
  %19 = load ptr, ptr %9, align 8
  %20 = call noundef zeroext i1 @_ZN5clang8SemaWasm19BuiltinWasmTableGetEPNS_8CallExprE(ptr noundef nonnull align 8 dereferenceable(8) %10, ptr noundef %19)
  store i1 %20, ptr %5, align 1
  br label %37

21:                                               ; preds = %4
  %22 = load ptr, ptr %9, align 8
  %23 = call noundef zeroext i1 @_ZN5clang8SemaWasm19BuiltinWasmTableSetEPNS_8CallExprE(ptr noundef nonnull align 8 dereferenceable(8) %10, ptr noundef %22)
  store i1 %23, ptr %5, align 1
  br label %37

24:                                               ; preds = %4
  %25 = load ptr, ptr %9, align 8
  %26 = call noundef zeroext i1 @_ZN5clang8SemaWasm20BuiltinWasmTableSizeEPNS_8CallExprE(ptr noundef nonnull align 8 dereferenceable(8) %10, ptr noundef %25)
  store i1 %26, ptr %5, align 1
  br label %37

27:                                               ; preds = %4
  %28 = load ptr, ptr %9, align 8
  %29 = call noundef zeroext i1 @_ZN5clang8SemaWasm20BuiltinWasmTableGrowEPNS_8CallExprE(ptr noundef nonnull align 8 dereferenceable(8) %10, ptr noundef %28)
  store i1 %29, ptr %5, align 1
  br label %37

30:                                               ; preds = %4
  %31 = load ptr, ptr %9, align 8
  %32 = call noundef zeroext i1 @_ZN5clang8SemaWasm20BuiltinWasmTableFillEPNS_8CallExprE(ptr noundef nonnull align 8 dereferenceable(8) %10, ptr noundef %31)
  store i1 %32, ptr %5, align 1
  br label %37

33:                                               ; preds = %4
  %34 = load ptr, ptr %9, align 8
  %35 = call noundef zeroext i1 @_ZN5clang8SemaWasm20BuiltinWasmTableCopyEPNS_8CallExprE(ptr noundef nonnull align 8 dereferenceable(8) %10, ptr noundef %34)
  store i1 %35, ptr %5, align 1
  br label %37

36:                                               ; preds = %4
  store i1 false, ptr %5, align 1
  br label %37

37:                                               ; preds = %36, %33, %30, %27, %24, %21, %18, %15, %12
  %38 = load i1, ptr %5, align 1
  ret i1 %38
}