; Function Attrs: mustprogress nounwind uwtable
define dso_local noundef zeroext i1 @_ZN5clang8SemaWasm35CheckWebAssemblyBuiltinFunctionCallERKNS_10TargetInfoEjPNS_8CallExprE(ptr noundef nonnull align 8 dereferenceable(8) %0, ptr nocapture noundef nonnull readnone align 1 %1, i32 noundef %2, ptr noundef %3) local_unnamed_addr #0 align 2 {
  %5 = alloca %"class.clang::QualType", align 8
  %6 = alloca %"class.clang::QualType", align 8
  switch i32 %2, label %_ZN5clang8SemaWasm24BuiltinWasmRefNullExternEPNS_8CallExprE.exit [
    i32 1551, label %7
    i32 1552, label %14
    i32 1554, label %16
    i32 1553, label %27
    i32 1555, label %29
    i32 1556, label %35
    i32 1557, label %37
    i32 1558, label %39
  ]

7:                                                ; preds = %4
  %8 = getelementptr inbounds nuw i8, ptr %3, i64 16
  %9 = load i32, ptr %8, align 8
  %.not.i.not = icmp eq i32 %9, 0
  br i1 %.not.i.not, label %10, label %_ZN5clang8SemaWasm24BuiltinWasmRefNullExternEPNS_8CallExprE.exit

10:                                               ; preds = %7
  %11 = tail call noundef nonnull align 8 dereferenceable(23096) ptr @_ZNK5clang8SemaBase13getASTContextEv(ptr noundef nonnull align 8 dereferenceable(8) %0) #12
  %12 = tail call i64 @_ZNK5clang10ASTContext27getWebAssemblyExternrefTypeEv(ptr noundef nonnull align 8 dereferenceable(23096) %11) #12
  %13 = getelementptr inbounds nuw i8, ptr %3, i64 8
  store i64 %12, ptr %13, align 8
  br label %_ZN5clang8SemaWasm24BuiltinWasmRefNullExternEPNS_8CallExprE.exit

14:                                               ; preds = %4
  %15 = tail call noundef zeroext i1 @_ZN5clang8SemaWasm22BuiltinWasmRefNullFuncEPNS_8CallExprE(ptr noundef nonnull align 8 dereferenceable(8) %0, ptr noundef %3)
  br label %_ZN5clang8SemaWasm24BuiltinWasmRefNullExternEPNS_8CallExprE.exit

16:                                               ; preds = %4
  call void @llvm.lifetime.start.p0(i64 8, ptr nonnull %6)
  %17 = load ptr, ptr %0, align 8
  %18 = tail call noundef zeroext i1 @_ZN5clang4Sema13checkArgCountEPNS_8CallExprEj(ptr noundef nonnull align 8 dereferenceable(17560) %17, ptr noundef %3, i32 noundef 2) #12
  br i1 %18, label %_ZN5clang8SemaWasm19BuiltinWasmTableGetEPNS_8CallExprE.exit, label %19

19:                                               ; preds = %16
  store i64 0, ptr %6, align 8
  %20 = load ptr, ptr %0, align 8
  %21 = call fastcc noundef zeroext i1 @_ZN5clangL26CheckWasmBuiltinArgIsTableERNS_4SemaEPNS_8CallExprEjRNS_8QualTypeE(ptr noundef nonnull align 8 dereferenceable(17560) %20, ptr noundef %3, i32 noundef 0, ptr noundef nonnull align 8 dereferenceable(8) %6)
  br i1 %21, label %_ZN5clang8SemaWasm19BuiltinWasmTableGetEPNS_8CallExprE.exit, label %22

22:                                               ; preds = %19
  %23 = load ptr, ptr %0, align 8
  %24 = tail call fastcc noundef zeroext i1 @_ZN5clangL28CheckWasmBuiltinArgIsIntegerERNS_4SemaEPNS_8CallExprEj(ptr noundef nonnull align 8 dereferenceable(17560) %23, ptr noundef %3, i32 noundef 1)
  br i1 %24, label %_ZN5clang8SemaWasm19BuiltinWasmTableGetEPNS_8CallExprE.exit, label %25

25:                                               ; preds = %22
  %.sroa.0.0.copyload.i = load i64, ptr %6, align 8
  %26 = getelementptr inbounds nuw i8, ptr %3, i64 8
  store i64 %.sroa.0.0.copyload.i, ptr %26, align 8
  br label %_ZN5clang8SemaWasm19BuiltinWasmTableGetEPNS_8CallExprE.exit

_ZN5clang8SemaWasm19BuiltinWasmTableGetEPNS_8CallExprE.exit: ; preds = %16, %19, %22, %25
  %.0.i = phi i1 [ false, %25 ], [ true, %16 ], [ true, %19 ], [ true, %22 ]
  call void @llvm.lifetime.end.p0(i64 8, ptr nonnull %6)
  br label %_ZN5clang8SemaWasm24BuiltinWasmRefNullExternEPNS_8CallExprE.exit

27:                                               ; preds = %4
  %28 = tail call noundef zeroext i1 @_ZN5clang8SemaWasm19BuiltinWasmTableSetEPNS_8CallExprE(ptr noundef nonnull align 8 dereferenceable(8) %0, ptr noundef %3)
  br label %_ZN5clang8SemaWasm24BuiltinWasmRefNullExternEPNS_8CallExprE.exit

29:                                               ; preds = %4
  call void @llvm.lifetime.start.p0(i64 8, ptr nonnull %5)
  %30 = load ptr, ptr %0, align 8
  %31 = tail call noundef zeroext i1 @_ZN5clang4Sema13checkArgCountEPNS_8CallExprEj(ptr noundef nonnull align 8 dereferenceable(17560) %30, ptr noundef %3, i32 noundef 1) #12
  br i1 %31, label %_ZN5clang8SemaWasm20BuiltinWasmTableSizeEPNS_8CallExprE.exit, label %32

32:                                               ; preds = %29
  %33 = load ptr, ptr %0, align 8
  %34 = call fastcc noundef zeroext i1 @_ZN5clangL26CheckWasmBuiltinArgIsTableERNS_4SemaEPNS_8CallExprEjRNS_8QualTypeE(ptr noundef nonnull align 8 dereferenceable(17560) %33, ptr noundef %3, i32 noundef 0, ptr noundef nonnull align 8 dereferenceable(8) %5)
  br label %_ZN5clang8SemaWasm20BuiltinWasmTableSizeEPNS_8CallExprE.exit

_ZN5clang8SemaWasm20BuiltinWasmTableSizeEPNS_8CallExprE.exit: ; preds = %29, %32
  %.0.i10 = phi i1 [ true, %29 ], [ %34, %32 ]
  call void @llvm.lifetime.end.p0(i64 8, ptr nonnull %5)
  br label %_ZN5clang8SemaWasm24BuiltinWasmRefNullExternEPNS_8CallExprE.exit

35:                                               ; preds = %4
  %36 = tail call noundef zeroext i1 @_ZN5clang8SemaWasm20BuiltinWasmTableGrowEPNS_8CallExprE(ptr noundef nonnull align 8 dereferenceable(8) %0, ptr noundef %3)
  br label %_ZN5clang8SemaWasm24BuiltinWasmRefNullExternEPNS_8CallExprE.exit

37:                                               ; preds = %4
  %38 = tail call noundef zeroext i1 @_ZN5clang8SemaWasm20BuiltinWasmTableFillEPNS_8CallExprE(ptr noundef nonnull align 8 dereferenceable(8) %0, ptr noundef %3)
  br label %_ZN5clang8SemaWasm24BuiltinWasmRefNullExternEPNS_8CallExprE.exit

39:                                               ; preds = %4
  %40 = tail call noundef zeroext i1 @_ZN5clang8SemaWasm20BuiltinWasmTableCopyEPNS_8CallExprE(ptr noundef nonnull align 8 dereferenceable(8) %0, ptr noundef %3)
  br label %_ZN5clang8SemaWasm24BuiltinWasmRefNullExternEPNS_8CallExprE.exit

_ZN5clang8SemaWasm24BuiltinWasmRefNullExternEPNS_8CallExprE.exit: ; preds = %10, %7, %4, %39, %37, %35, %_ZN5clang8SemaWasm20BuiltinWasmTableSizeEPNS_8CallExprE.exit, %27, %_ZN5clang8SemaWasm19BuiltinWasmTableGetEPNS_8CallExprE.exit, %14
  %.0 = phi i1 [ %40, %39 ], [ %38, %37 ], [ %36, %35 ], [ %.0.i10, %_ZN5clang8SemaWasm20BuiltinWasmTableSizeEPNS_8CallExprE.exit ], [ %28, %27 ], [ %.0.i, %_ZN5clang8SemaWasm19BuiltinWasmTableGetEPNS_8CallExprE.exit ], [ %15, %14 ], [ false, %4 ], [ true, %7 ], [ false, %10 ]
  ret i1 %.0
}